target datalayout = "e-m:e-p270:32:32-p271:32:32-p272:64:64-i64:64-i128:128-f80:128-n8:16:32:64-S128"
target triple = "x86_64-pc-linux-gnu"

@.str.14 = private unnamed_addr constant [45 x i8] c"must be contained in argument #1 ($haystack)\00", align 1
@.str.89 = private unnamed_addr constant [22 x i8] c"Cannot open converter\00", align 1
@.str.90 = private unnamed_addr constant [60 x i8] c"Wrong encoding, conversion from \22%s\22 to \22%s\22 is not allowed\00", align 1
@.str.91 = private unnamed_addr constant [59 x i8] c"Detected an incomplete multibyte character in input string\00", align 1
@.str.92 = private unnamed_addr constant [46 x i8] c"Detected an illegal character in input string\00", align 1
@.str.93 = private unnamed_addr constant [23 x i8] c"Buffer length exceeded\00", align 1
@.str.94 = private unnamed_addr constant [17 x i8] c"Malformed string\00", align 1
@.str.95 = private unnamed_addr constant [19 x i8] c"Unknown error (%d)\00", align 1

; Function Attrs: nounwind uwtable
define internal void @_php_iconv_show_error(i32 noundef %0, ptr noundef %1, ptr noundef %2) #0 {
  %4 = alloca i32, align 4
  %5 = alloca ptr, align 8
  %6 = alloca ptr, align 8
  store i32 %0, ptr %4, align 4, !tbaa !4
  store ptr %1, ptr %5, align 8, !tbaa !23
  store ptr %2, ptr %6, align 8, !tbaa !23
  %7 = load i32, ptr %4, align 4, !tbaa !4
  switch i32 %7, label %17 [
    i32 0, label %20
    i32 1, label %8
    i32 2, label %9
    i32 5, label %12
    i32 4, label %13
    i32 3, label %14
    i32 7, label %15
    i32 9, label %16
  ]

8:                                                ; preds = %3
  call void (ptr, i32, ptr, ...) @php_error_docref(ptr noundef null, i32 noundef 2, ptr noundef @.str.89)
  br label %20

9:                                                ; preds = %3
  %10 = load ptr, ptr %6, align 8, !tbaa !23
  %11 = load ptr, ptr %5, align 8, !tbaa !23
  call void (ptr, i32, ptr, ...) @php_error_docref(ptr noundef null, i32 noundef 2, ptr noundef @.str.90, ptr noundef %10, ptr noundef %11)
  br label %20

12:                                               ; preds = %3
  call void (ptr, i32, ptr, ...) @php_error_docref(ptr noundef null, i32 noundef 8, ptr noundef @.str.91)
  br label %20

13:                                               ; preds = %3
  call void (ptr, i32, ptr, ...) @php_error_docref(ptr noundef null, i32 noundef 8, ptr noundef @.str.92)
  br label %20

14:                                               ; preds = %3
  call void (ptr, i32, ptr, ...) @php_error_docref(ptr noundef null, i32 noundef 2, ptr noundef @.str.93)
  br label %20

15:                                               ; preds = %3
  call void (ptr, i32, ptr, ...) @php_error_docref(ptr noundef null, i32 noundef 2, ptr noundef @.str.94)
  br label %20

16:                                               ; preds = %3
  call void (i32, ptr, ...) @zend_argument_value_error(i32 noundef 3, ptr noundef @.str.14)
  br label %20

17:                                               ; preds = %3
  %18 = call ptr @__errno_location() #16
  %19 = load i32, ptr %18, align 4, !tbaa !4
  call void (ptr, i32, ptr, ...) @php_error_docref(ptr noundef null, i32 noundef 8, ptr noundef @.str.95, i32 noundef %19)
  br label %20

20:                                               ; preds = %17, %16, %15, %14, %13, %12, %9, %8, %3
  ret void
}