; Function Attrs: nounwind uwtable
define internal fastcc void @_php_iconv_show_error(i32 noundef %0, ptr noundef %1, ptr noundef %2) unnamed_addr #0 {
  switch i32 %0, label %11 [
    i32 0, label %14
    i32 1, label %4
    i32 2, label %5
    i32 5, label %6
    i32 4, label %7
    i32 3, label %8
    i32 7, label %9
    i32 9, label %10
  ]

4:                                                ; preds = %3
  tail call void (ptr, i32, ptr, ...) @php_error_docref(ptr noundef null, i32 noundef 2, ptr noundef nonnull @.str.89) #16
  br label %14

5:                                                ; preds = %3
  tail call void (ptr, i32, ptr, ...) @php_error_docref(ptr noundef null, i32 noundef 2, ptr noundef nonnull @.str.90, ptr noundef %2, ptr noundef %1) #16
  br label %14

6:                                                ; preds = %3
  tail call void (ptr, i32, ptr, ...) @php_error_docref(ptr noundef null, i32 noundef 8, ptr noundef nonnull @.str.91) #16
  br label %14

7:                                                ; preds = %3
  tail call void (ptr, i32, ptr, ...) @php_error_docref(ptr noundef null, i32 noundef 8, ptr noundef nonnull @.str.92) #16
  br label %14

8:                                                ; preds = %3
  tail call void (ptr, i32, ptr, ...) @php_error_docref(ptr noundef null, i32 noundef 2, ptr noundef nonnull @.str.93) #16
  br label %14

9:                                                ; preds = %3
  tail call void (ptr, i32, ptr, ...) @php_error_docref(ptr noundef null, i32 noundef 2, ptr noundef nonnull @.str.94) #16
  br label %14

10:                                               ; preds = %3
  tail call void (i32, ptr, ...) @zend_argument_value_error(i32 noundef 3, ptr noundef nonnull @.str.14) #16
  br label %14

11:                                               ; preds = %3
  %12 = tail call ptr @__errno_location() #18
  %13 = load i32, ptr %12, align 4, !tbaa !12
  tail call void (ptr, i32, ptr, ...) @php_error_docref(ptr noundef null, i32 noundef 8, ptr noundef nonnull @.str.95, i32 noundef %13) #16
  br label %14

14:                                               ; preds = %11, %10, %9, %8, %7, %6, %5, %4, %3
  ret void
}